target datalayout = "e-m:e-p270:32:32-p271:32:32-p272:64:64-i64:64-i128:128-f80:128-n8:16:32:64-S128"
target triple = "x86_64-pc-linux-gnu"

%"class.clang::interp::InterpState" = type { %"class.clang::interp::State.base", %"class.clang::interp::SourceMapper", ptr, ptr, ptr, %"class.clang::interp::DynamicAllocator", ptr, ptr, ptr, ptr, %"class.clang::SourceLocation", ptr, %"class.llvm::SmallVector.6" }
%"class.clang::interp::State.base" = type <{ ptr, i8 }>
%"class.clang::interp::SourceMapper" = type { ptr }
%"class.clang::interp::DynamicAllocator" = type { %"class.llvm::DenseMap", %"class.llvm::BumpPtrAllocatorImpl" }
%"class.llvm::DenseMap" = type <{ ptr, i32, i32, i32, [4 x i8] }>
%"class.llvm::BumpPtrAllocatorImpl" = type { ptr, ptr, %"class.llvm::SmallVector", %"class.llvm::SmallVector.1", i64, i64 }
%"class.llvm::SmallVector" = type { %"class.llvm::SmallVectorImpl", %"struct.llvm::SmallVectorStorage" }
%"class.llvm::SmallVectorImpl" = type { %"class.llvm::SmallVectorTemplateBase" }
%"class.llvm::SmallVectorTemplateBase" = type { %"class.llvm::SmallVectorTemplateCommon" }
%"class.llvm::SmallVectorTemplateCommon" = type { %"class.llvm::SmallVectorBase" }
%"class.llvm::SmallVectorBase" = type { ptr, i32, i32 }
%"struct.llvm::SmallVectorStorage" = type { [32 x i8] }
%"class.llvm::SmallVector.1" = type { %"class.llvm::SmallVectorImpl.2" }
%"class.llvm::SmallVectorImpl.2" = type { %"class.llvm::SmallVectorTemplateBase.3" }
%"class.llvm::SmallVectorTemplateBase.3" = type { %"class.llvm::SmallVectorTemplateCommon.4" }
%"class.llvm::SmallVectorTemplateCommon.4" = type { %"class.llvm::SmallVectorBase" }
%"class.clang::SourceLocation" = type { i32 }
%"class.llvm::SmallVector.6" = type { %"class.llvm::SmallVectorImpl.7", %"struct.llvm::SmallVectorStorage.10" }
%"class.llvm::SmallVectorImpl.7" = type { %"class.llvm::SmallVectorTemplateBase.8" }
%"class.llvm::SmallVectorTemplateBase.8" = type { %"class.llvm::SmallVectorTemplateCommon.9" }
%"class.llvm::SmallVectorTemplateCommon.9" = type { %"class.llvm::SmallVectorBase" }
%"struct.llvm::SmallVectorStorage.10" = type { [48 x i8] }
%"class.clang::interp::InterpFrame" = type { %"class.clang::interp::Frame", ptr, ptr, i32, ptr, %"class.clang::interp::Pointer", %"class.clang::interp::Pointer", %"class.clang::interp::CodePtr", i32, ptr, %"class.std::unique_ptr.38", i64, %"class.llvm::DenseMap.46" }
%"class.clang::interp::Frame" = type { ptr }
%"class.clang::interp::Pointer" = type <{ i64, ptr, ptr, %union.anon, i32, [4 x i8] }>
%union.anon = type { %"struct.clang::interp::BlockPointer", [8 x i8] }
%"struct.clang::interp::BlockPointer" = type { ptr, i32 }
%"class.clang::interp::CodePtr" = type { ptr }
%"class.std::unique_ptr.38" = type { %"struct.std::__uniq_ptr_data.39" }
%"struct.std::__uniq_ptr_data.39" = type { %"class.std::__uniq_ptr_impl.40" }
%"class.std::__uniq_ptr_impl.40" = type { %"class.std::tuple.41" }
%"class.std::tuple.41" = type { %"struct.std::_Tuple_impl.42" }
%"struct.std::_Tuple_impl.42" = type { %"struct.std::_Head_base.45" }
%"struct.std::_Head_base.45" = type { ptr }
%"class.llvm::DenseMap.46" = type <{ ptr, i32, i32, i32, [4 x i8] }>
%"class.clang::interp::DeadBlock" = type { ptr, ptr, ptr, %"class.clang::interp::Block" }
%"class.clang::interp::Block" = type { i32, ptr, %"class.std::optional", i8, i8, i8, i8, i8, ptr }
%"class.std::optional" = type { %"struct.std::_Optional_base" }
%"struct.std::_Optional_base" = type { %"struct.std::_Optional_payload" }
%"struct.std::_Optional_payload" = type { %"struct.std::_Optional_payload_base.base", [3 x i8] }
%"struct.std::_Optional_payload_base.base" = type <{ %"union.std::_Optional_payload_base<unsigned int>::_Storage", i8 }>
%"union.std::_Optional_payload_base<unsigned int>::_Storage" = type { i32 }
%"struct.std::pair.458" = type { ptr, ptr }

; Function Attrs: mustprogress nounwind uwtable
define linkonce_odr hidden noundef ptr @_ZNK4llvm25SmallVectorTemplateCommonISt4pairIPKN5clang4ExprEPKNS2_29LifetimeExtendedTemporaryDeclEEvE10getFirstElEv(ptr noundef nonnull align 8 dereferenceable(16) %0) #0 comdat align 2 {
  %2 = alloca ptr, align 8
  store ptr %0, ptr %2, align 8
  %3 = load ptr, ptr %2, align 8
  %4 = getelementptr inbounds i8, ptr %3, i64 16
  ret ptr %4
}

; Function Attrs: mustprogress nounwind uwtable
define linkonce_odr hidden noundef zeroext i1 @_ZNK4llvm25SmallVectorTemplateCommonISt4pairIPKN5clang4ExprEPKNS2_29LifetimeExtendedTemporaryDeclEEvE7isSmallEv(ptr noundef nonnull align 8 dereferenceable(16) %0) #0 comdat align 2 {
  %2 = alloca ptr, align 8
  store ptr %0, ptr %2, align 8
  %3 = load ptr, ptr %2, align 8
  %4 = getelementptr inbounds nuw %"class.llvm::SmallVectorBase", ptr %3, i32 0, i32 0
  %5 = load ptr, ptr %4, align 8
  %6 = call noundef ptr @_ZNK4llvm25SmallVectorTemplateCommonISt4pairIPKN5clang4ExprEPKNS2_29LifetimeExtendedTemporaryDeclEEvE10getFirstElEv(ptr noundef nonnull align 8 dereferenceable(16) %3)
  %7 = icmp eq ptr %5, %6
  ret i1 %7
}

; Function Attrs: mustprogress nounwind uwtable
define linkonce_odr hidden void @_ZN4llvm15SmallVectorImplISt4pairIPKN5clang4ExprEPKNS2_29LifetimeExtendedTemporaryDeclEEED2Ev(ptr noundef nonnull align 8 dereferenceable(16) %0) unnamed_addr #0 comdat align 2 {
  %2 = alloca ptr, align 8
  store ptr %0, ptr %2, align 8
  %3 = load ptr, ptr %2, align 8
  %4 = call noundef zeroext i1 @_ZNK4llvm25SmallVectorTemplateCommonISt4pairIPKN5clang4ExprEPKNS2_29LifetimeExtendedTemporaryDeclEEvE7isSmallEv(ptr noundef nonnull align 8 dereferenceable(16) %3)
  br i1 %4, label %7, label %5

5:                                                ; preds = %1
  %6 = call noundef ptr @_ZN4llvm25SmallVectorTemplateCommonISt4pairIPKN5clang4ExprEPKNS2_29LifetimeExtendedTemporaryDeclEEvE5beginEv(ptr noundef nonnull align 8 dereferenceable(16) %3)
  call void @free(ptr noundef %6) #11
  br label %7

7:                                                ; preds = %5, %1
  ret void
}

; Function Attrs: mustprogress nounwind uwtable
define linkonce_odr hidden void @_ZN4llvm23SmallVectorTemplateBaseISt4pairIPKN5clang4ExprEPKNS2_29LifetimeExtendedTemporaryDeclEELb1EE13destroy_rangeEPS9_SB_(ptr noundef %0, ptr noundef %1) #0 comdat align 2 {
  %3 = alloca ptr, align 8
  %4 = alloca ptr, align 8
  store ptr %0, ptr %3, align 8
  store ptr %1, ptr %4, align 8
  ret void
}

; Function Attrs: mustprogress nounwind uwtable
define linkonce_odr hidden noundef ptr @_ZN4llvm25SmallVectorTemplateCommonISt4pairIPKN5clang4ExprEPKNS2_29LifetimeExtendedTemporaryDeclEEvE3endEv(ptr noundef nonnull align 8 dereferenceable(16) %0) #0 comdat align 2 {
  %2 = alloca ptr, align 8
  store ptr %0, ptr %2, align 8
  %3 = load ptr, ptr %2, align 8
  %4 = call noundef ptr @_ZN4llvm25SmallVectorTemplateCommonISt4pairIPKN5clang4ExprEPKNS2_29LifetimeExtendedTemporaryDeclEEvE5beginEv(ptr noundef nonnull align 8 dereferenceable(16) %3)
  %5 = call noundef i64 @_ZNK4llvm15SmallVectorBaseIjE4sizeEv(ptr noundef nonnull align 8 dereferenceable(16) %3)
  %6 = getelementptr inbounds %"struct.std::pair.458", ptr %4, i64 %5
  ret ptr %6
}

; Function Attrs: mustprogress nounwind uwtable
define linkonce_odr hidden noundef ptr @_ZN4llvm25SmallVectorTemplateCommonISt4pairIPKN5clang4ExprEPKNS2_29LifetimeExtendedTemporaryDeclEEvE5beginEv(ptr noundef nonnull align 8 dereferenceable(16) %0) #0 comdat align 2 {
  %2 = alloca ptr, align 8
  store ptr %0, ptr %2, align 8
  %3 = load ptr, ptr %2, align 8
  %4 = getelementptr inbounds nuw %"class.llvm::SmallVectorBase", ptr %3, i32 0, i32 0
  %5 = load ptr, ptr %4, align 8
  ret ptr %5
}

; Function Attrs: mustprogress nounwind uwtable
define linkonce_odr hidden void @_ZN5clang6interp12SourceMapperD2Ev(ptr noundef nonnull align 8 dereferenceable(8) %0) unnamed_addr #0 comdat align 2 {
  %2 = alloca ptr, align 8
  store ptr %0, ptr %2, align 8
  ret void
}

; Function Attrs: mustprogress nounwind uwtable
define linkonce_odr hidden void @_ZN4llvm11SmallVectorISt4pairIPKN5clang4ExprEPKNS2_29LifetimeExtendedTemporaryDeclEELj3EED2Ev(ptr noundef nonnull align 8 dereferenceable(64) %0) unnamed_addr #0 comdat align 2 {
  %2 = alloca ptr, align 8
  store ptr %0, ptr %2, align 8
  %3 = load ptr, ptr %2, align 8
  %4 = call noundef ptr @_ZN4llvm25SmallVectorTemplateCommonISt4pairIPKN5clang4ExprEPKNS2_29LifetimeExtendedTemporaryDeclEEvE5beginEv(ptr noundef nonnull align 8 dereferenceable(16) %3)
  %5 = call noundef ptr @_ZN4llvm25SmallVectorTemplateCommonISt4pairIPKN5clang4ExprEPKNS2_29LifetimeExtendedTemporaryDeclEEvE3endEv(ptr noundef nonnull align 8 dereferenceable(16) %3)
  call void @_ZN4llvm23SmallVectorTemplateBaseISt4pairIPKN5clang4ExprEPKNS2_29LifetimeExtendedTemporaryDeclEELb1EE13destroy_rangeEPS9_SB_(ptr noundef %4, ptr noundef %5)
  call void @_ZN4llvm15SmallVectorImplISt4pairIPKN5clang4ExprEPKNS2_29LifetimeExtendedTemporaryDeclEEED2Ev(ptr noundef nonnull align 8 dereferenceable(16) %3) #11
  ret void
}

; Function Attrs: mustprogress nounwind uwtable
define dso_local void @_ZN5clang6interp11InterpStateD2Ev(ptr noundef nonnull align 8 dereferenceable(280) %0) unnamed_addr #0 align 2 {
  %2 = alloca ptr, align 8
  %3 = alloca ptr, align 8
  %4 = alloca ptr, align 8
  store ptr %0, ptr %2, align 8
  %5 = load ptr, ptr %2, align 8
  br label %6

6:                                                ; preds = %19, %1
  %7 = getelementptr inbounds nuw %"class.clang::interp::InterpState", ptr %5, i32 0, i32 9
  %8 = load ptr, ptr %7, align 8
  %9 = icmp ne ptr %8, null
  br i1 %9, label %10, label %22

10:                                               ; preds = %6
  %11 = getelementptr inbounds nuw %"class.clang::interp::InterpState", ptr %5, i32 0, i32 9
  %12 = load ptr, ptr %11, align 8
  %13 = getelementptr inbounds nuw %"class.clang::interp::InterpFrame", ptr %12, i32 0, i32 1
  %14 = load ptr, ptr %13, align 8
  store ptr %14, ptr %3, align 8
  %15 = getelementptr inbounds nuw %"class.clang::interp::InterpState", ptr %5, i32 0, i32 9
  %16 = load ptr, ptr %15, align 8
  %17 = icmp eq ptr %16, null
  br i1 %17, label %19, label %18

18:                                               ; preds = %10
  call void @_ZN5clang6interp11InterpFrameD1Ev(ptr noundef nonnull align 8 dereferenceable(216) %16) #11
  call void @_ZdlPvm(ptr noundef %16, i64 noundef 216) #12
  br label %19

19:                                               ; preds = %18, %10
  %20 = load ptr, ptr %3, align 8
  %21 = getelementptr inbounds nuw %"class.clang::interp::InterpState", ptr %5, i32 0, i32 9
  store ptr %20, ptr %21, align 8
  br label %6, !llvm.loop !4

22:                                               ; preds = %6
  br label %23

23:                                               ; preds = %27, %22
  %24 = getelementptr inbounds nuw %"class.clang::interp::InterpState", ptr %5, i32 0, i32 3
  %25 = load ptr, ptr %24, align 8
  %26 = icmp ne ptr %25, null
  br i1 %26, label %27, label %36

27:                                               ; preds = %23
  %28 = getelementptr inbounds nuw %"class.clang::interp::InterpState", ptr %5, i32 0, i32 3
  %29 = load ptr, ptr %28, align 8
  %30 = getelementptr inbounds nuw %"class.clang::interp::DeadBlock", ptr %29, i32 0, i32 2
  %31 = load ptr, ptr %30, align 8
  store ptr %31, ptr %4, align 8
  %32 = getelementptr inbounds nuw %"class.clang::interp::InterpState", ptr %5, i32 0, i32 3
  %33 = load ptr, ptr %32, align 8
  call void @free(ptr noundef %33) #11
  %34 = load ptr, ptr %4, align 8
  %35 = getelementptr inbounds nuw %"class.clang::interp::InterpState", ptr %5, i32 0, i32 3
  store ptr %34, ptr %35, align 8
  br label %23, !llvm.loop !6

36:                                               ; preds = %23
  %37 = getelementptr inbounds nuw %"class.clang::interp::InterpState", ptr %5, i32 0, i32 12
  call void @_ZN4llvm11SmallVectorISt4pairIPKN5clang4ExprEPKNS2_29LifetimeExtendedTemporaryDeclEELj3EED2Ev(ptr noundef nonnull align 8 dereferenceable(64) %37) #11
  %38 = getelementptr inbounds nuw %"class.clang::interp::InterpState", ptr %5, i32 0, i32 5
  call void @_ZN5clang6interp16DynamicAllocatorD1Ev(ptr noundef nonnull align 8 dereferenceable(120) %38) #11
  %39 = getelementptr inbounds i8, ptr %5, i64 16
  call void @_ZN5clang6interp12SourceMapperD2Ev(ptr noundef nonnull align 8 dereferenceable(8) %39) #11
  call void @_ZN5clang6interp5StateD2Ev(ptr noundef nonnull align 8 dereferenceable(9) %5) #11
  ret void
}