; Function Attrs: mustprogress nounwind uwtable
define dso_local void @_ZN5clang6interp11InterpStateD2Ev(ptr noundef nonnull align 8 dereferenceable(280) %0) unnamed_addr #0 align 2 {
  %2 = getelementptr inbounds nuw i8, ptr %0, i64 192
  %3 = load ptr, ptr %2, align 8
  %.not5 = icmp eq ptr %3, null
  br i1 %.not5, label %.preheader, label %.lr.ph

.preheader:                                       ; preds = %.lr.ph, %1
  %4 = getelementptr inbounds nuw i8, ptr %0, i64 32
  %5 = load ptr, ptr %4, align 8
  %.not46 = icmp eq ptr %5, null
  br i1 %.not46, label %._crit_edge, label %.lr.ph7

.lr.ph:                                           ; preds = %1, %.lr.ph
  %6 = phi ptr [ %8, %.lr.ph ], [ %3, %1 ]
  %7 = getelementptr inbounds nuw i8, ptr %6, i64 8
  %8 = load ptr, ptr %7, align 8
  tail call void @_ZN5clang6interp11InterpFrameD1Ev(ptr noundef nonnull align 8 dereferenceable(216) %6) #12
  tail call void @_ZdlPvm(ptr noundef nonnull %6, i64 noundef 216) #13
  store ptr %8, ptr %2, align 8
  %.not = icmp eq ptr %8, null
  br i1 %.not, label %.preheader, label %.lr.ph, !llvm.loop !4

.lr.ph7:                                          ; preds = %.preheader, %.lr.ph7
  %9 = phi ptr [ %11, %.lr.ph7 ], [ %5, %.preheader ]
  %10 = getelementptr inbounds nuw i8, ptr %9, i64 16
  %11 = load ptr, ptr %10, align 8
  tail call void @free(ptr noundef nonnull %9) #12
  store ptr %11, ptr %4, align 8
  %.not4 = icmp eq ptr %11, null
  br i1 %.not4, label %._crit_edge, label %.lr.ph7, !llvm.loop !6

._crit_edge:                                      ; preds = %.lr.ph7, %.preheader
  %12 = getelementptr inbounds nuw i8, ptr %0, i64 216
  %13 = tail call noundef i64 @_ZNK4llvm15SmallVectorBaseIjE4sizeEv(ptr noundef nonnull align 8 dereferenceable(16) %12) #12
  %14 = load ptr, ptr %12, align 8
  %15 = getelementptr inbounds i8, ptr %0, i64 232
  %16 = icmp eq ptr %14, %15
  br i1 %16, label %_ZN4llvm11SmallVectorISt4pairIPKN5clang4ExprEPKNS2_29LifetimeExtendedTemporaryDeclEELj3EED2Ev.exit, label %17

17:                                               ; preds = %._crit_edge
  tail call void @free(ptr noundef %14) #12
  br label %_ZN4llvm11SmallVectorISt4pairIPKN5clang4ExprEPKNS2_29LifetimeExtendedTemporaryDeclEELj3EED2Ev.exit

_ZN4llvm11SmallVectorISt4pairIPKN5clang4ExprEPKNS2_29LifetimeExtendedTemporaryDeclEELj3EED2Ev.exit: ; preds = %._crit_edge, %17
  %18 = getelementptr inbounds nuw i8, ptr %0, i64 48
  tail call void @_ZN5clang6interp16DynamicAllocatorD1Ev(ptr noundef nonnull align 8 dereferenceable(120) %18) #12
  tail call void @_ZN5clang6interp5StateD2Ev(ptr noundef nonnull align 8 dereferenceable(9) %0) #12
  ret void
}